; Function Attrs: mustprogress uwtable
define noundef signext range(i8 0, 2) i8 @_ZNK6icu_778Collator6equalsERKNS_13UnicodeStringES3_(ptr noundef nonnull align 8 dereferenceable(8) %0, ptr noundef nonnull align 8 dereferenceable(64) %1, ptr noundef nonnull align 8 dereferenceable(64) %2) local_unnamed_addr #5 align 2 {
  %4 = alloca i32, align 4
  call void @llvm.lifetime.start.p0(i64 4, ptr nonnull %4) #16
  store i32 0, ptr %4, align 4, !tbaa !6
  %5 = load ptr, ptr %0, align 8, !tbaa !3
  %6 = getelementptr inbounds nuw i8, ptr %5, i64 56
  %7 = load ptr, ptr %6, align 8
  %8 = call noundef i32 %7(ptr noundef nonnull align 8 dereferenceable(8) %0, ptr noundef nonnull align 8 dereferenceable(64) %1, ptr noundef nonnull align 8 dereferenceable(64) %2, ptr noundef nonnull align 4 dereferenceable(4) %4)
  %9 = icmp eq i32 %8, 0
  %10 = zext i1 %9 to i8
  call void @llvm.lifetime.end.p0(i64 4, ptr nonnull %4) #16
  ret i8 %10
}